target datalayout = "e-m:e-p270:32:32-p271:32:32-p272:64:64-i64:64-i128:128-f80:128-n8:16:32:64-S128"
target triple = "x86_64-pc-linux-gnu"

%struct.rb_vm_struct = type { i64, %struct.anon.0, ptr, i64, %struct.ccan_list_head, i32, i8, i64, ptr, [5 x i64], i64, i64, i64, i64, i64, i64, i64, i64, i64, ptr, ptr, ptr, %struct.anon.4, ptr, i32, %struct.ccan_list_head, %union.pthread_mutex_t, i64, i64, i64, i64, i32, %struct.anon.5, ptr, ptr, ptr, ptr, ptr, ptr, ptr, ptr, i64, [1023 x ptr], %struct.anon.6 }
%struct.anon.0 = type { %struct.ccan_list_head, i32, i32, ptr, ptr, %struct.anon.1, %struct.anon.3 }
%struct.anon.1 = type { %union.pthread_mutex_t, ptr, i32, %union.pthread_cond_t, i8 }
%union.pthread_cond_t = type { %struct.__pthread_cond_s }
%struct.__pthread_cond_s = type { %union.__atomic_wide_counter, %union.__atomic_wide_counter, [2 x i32], [2 x i32], i32, i32, [2 x i32] }
%union.__atomic_wide_counter = type { i64 }
%struct.anon.3 = type { %union.pthread_mutex_t, ptr, i8, %union.pthread_cond_t, i32, i32, i32, i32, %struct.ccan_list_head, i32, %struct.ccan_list_head, %struct.ccan_list_head, %struct.ccan_list_head, i8, %union.pthread_cond_t, %union.pthread_cond_t, i8, i32, i32 }
%struct.anon.4 = type { [65 x i64] }
%struct.ccan_list_head = type { %struct.ccan_list_node }
%struct.ccan_list_node = type { ptr, ptr }
%union.pthread_mutex_t = type { %struct.__pthread_mutex_s }
%struct.__pthread_mutex_s = type { i32, i32, i32, i32, i32, i16, i16, %struct.__pthread_internal_list }
%struct.__pthread_internal_list = type { ptr, ptr }
%struct.anon.5 = type { ptr, ptr }
%struct.anon.6 = type { i64, i64, i64, i64 }

@ruby_current_vm_ptr = external global ptr, align 8

; Function Attrs: inlinehint nounwind sspstrong uwtable
define internal ptr @rb_current_vm() #2 {
  %1 = load ptr, ptr @ruby_current_vm_ptr, align 8, !tbaa !74
  ret ptr %1
}

; Function Attrs: inlinehint nounwind sspstrong willreturn memory(none) uwtable
define internal zeroext i1 @RB_TEST(i64 noundef %0) #7 {
  %2 = alloca i64, align 8
  store i64 %0, ptr %2, align 8, !tbaa !18
  %3 = load i64, ptr %2, align 8, !tbaa !18
  %4 = and i64 %3, -5
  %5 = icmp ne i64 %4, 0
  ret i1 %5
}

; Function Attrs: nounwind sspstrong uwtable
define dso_local ptr @rb_gc_get_objspace() #0 {
  %1 = call ptr @rb_current_vm()
  %2 = getelementptr inbounds nuw %struct.rb_vm_struct, ptr %1, i32 0, i32 32
  %3 = getelementptr inbounds nuw %struct.anon.5, ptr %2, i32 0, i32 0
  %4 = load ptr, ptr %3, align 8, !tbaa !55
  ret ptr %4
}

; Function Attrs: nounwind sspstrong uwtable
define internal i64 @gc_start_internal(ptr noundef %0, i64 noundef %1, i64 noundef %2, i64 noundef %3, i64 noundef %4, i64 noundef %5) #0 {
  %7 = alloca ptr, align 8
  %8 = alloca i64, align 8
  %9 = alloca i64, align 8
  %10 = alloca i64, align 8
  %11 = alloca i64, align 8
  %12 = alloca i64, align 8
  store ptr %0, ptr %7, align 8, !tbaa !20
  store i64 %1, ptr %8, align 8, !tbaa !18
  store i64 %2, ptr %9, align 8, !tbaa !18
  store i64 %3, ptr %10, align 8, !tbaa !18
  store i64 %4, ptr %11, align 8, !tbaa !18
  store i64 %5, ptr %12, align 8, !tbaa !18
  %13 = call ptr @rb_gc_get_objspace()
  %14 = load i64, ptr %9, align 8, !tbaa !18
  %15 = call zeroext i1 @RB_TEST(i64 noundef %14) #42
  %16 = load i64, ptr %10, align 8, !tbaa !18
  %17 = call zeroext i1 @RB_TEST(i64 noundef %16) #42
  %18 = load i64, ptr %11, align 8, !tbaa !18
  %19 = call zeroext i1 @RB_TEST(i64 noundef %18) #42
  %20 = load i64, ptr %12, align 8, !tbaa !18
  %21 = call zeroext i1 @RB_TEST(i64 noundef %20) #42
  call void @rb_gc_impl_start(ptr noundef %13, i1 noundef zeroext %15, i1 noundef zeroext %17, i1 noundef zeroext %19, i1 noundef zeroext %21)
  ret i64 4
}