; Function Attrs: nounwind sspstrong uwtable
define internal noundef i64 @gc_start_internal(ptr readnone captures(none) %0, i64 %1, i64 noundef %2, i64 noundef %3, i64 noundef %4, i64 noundef %5) #0 {
  %7 = load ptr, ptr @ruby_current_vm_ptr, align 8, !tbaa !62
  %8 = getelementptr inbounds nuw i8, ptr %7, i64 1296
  %9 = load ptr, ptr %8, align 8, !tbaa !63
  %10 = and i64 %2, -5
  %11 = icmp ne i64 %10, 0
  %12 = and i64 %3, -5
  %13 = icmp ne i64 %12, 0
  %14 = and i64 %4, -5
  %15 = icmp ne i64 %14, 0
  %16 = and i64 %5, -5
  %17 = icmp ne i64 %16, 0
  tail call fastcc void @rb_gc_impl_start(ptr noundef %9, i1 noundef zeroext %11, i1 noundef zeroext %13, i1 noundef zeroext %15, i1 noundef zeroext %17)
  ret i64 4
}